target datalayout = "e-m:e-p270:32:32-p271:32:32-p272:64:64-i64:64-i128:128-f80:128-n8:16:32:64-S128"
target triple = "x86_64-pc-linux-gnu"

%struct.Mv = type { i32, i32 }
%struct.VVCLocalContext = type { i8, i8, i8, i8, i32, i32, [4 x i8], [3276800 x i8], [16384 x i16], [16384 x i16], [16384 x i16], [32768 x i8], [332800 x i8], [368640 x i8], [368640 x i8], [17424 x i32], %struct.anon, %struct.anon.0, ptr, [2 x [1024 x %struct.ReconstructedArea]], [2 x i32], %struct.NeighbourAvailable, i32, ptr, ptr, ptr, ptr }
%struct.anon = type { i32, i8, i32, i32, i32, [3 x i32], i32, i32, i32, i32, i32, i32 }
%struct.anon.0 = type { i32, i32, i32 }
%struct.ReconstructedArea = type { i32, i32, i32, i32 }
%struct.NeighbourAvailable = type { i32, i32, i32, i32, i32 }
%struct.PredWeightTable = type { [2 x i8], [2 x i8], [2 x [2 x [15 x i8]]], [2 x [3 x [15 x i16]]], [2 x [3 x [15 x i16]]] }
%struct.VVCFrameContext = type { ptr, [17 x %struct.VVCFrame], ptr, ptr, %struct.VVCFrameParamSets, ptr, i32, i32, ptr, %struct.VVCDSPContext, %struct.VideoDSPContext, ptr, i64, ptr, ptr, ptr, ptr, %struct.anon.1 }
%struct.VVCFrame = type { ptr, ptr, ptr, ptr, ptr, ptr, i32, i32, i32, %struct.VVCWindow, i32, i32, ptr, ptr, i16, i8, ptr }
%struct.VVCWindow = type { i16, i16, i16, i16 }
%struct.VVCFrameParamSets = type { ptr, ptr, %struct.VVCPH, [8 x ptr], %struct.VVCLMCS, ptr }
%struct.VVCPH = type { ptr, ptr, i32, i32, i8, [3 x i16], i8, [3 x i16], %struct.PredWeightTable }
%struct.VVCLMCS = type { i8, i8, %union.anon, %union.anon, [17 x i16], [16 x i16] }
%union.anon = type { [4096 x i16] }
%struct.VVCDSPContext = type { %struct.VVCInterDSPContext, %struct.VVCIntraDSPContext, %struct.VVCItxDSPContext, %struct.VVCLMCSDSPContext, %struct.VVCLFDSPContext, %struct.VVCSAODSPContext, %struct.VVCALFDSPContext }
%struct.VVCInterDSPContext = type { [2 x [7 x [2 x [2 x ptr]]]], [2 x [7 x [2 x [2 x ptr]]]], [2 x [7 x [2 x [2 x ptr]]]], [2 x [7 x ptr]], [2 x [7 x ptr]], [2 x [7 x ptr]], ptr, ptr, ptr, ptr, ptr, ptr, ptr, ptr, ptr, ptr, ptr, [2 x [2 x ptr]] }
%struct.VVCIntraDSPContext = type { ptr, ptr, ptr, ptr, ptr, ptr, ptr, ptr, ptr, ptr }
%struct.VVCItxDSPContext = type { ptr, ptr, [3 x [6 x ptr]], ptr, ptr }
%struct.VVCLMCSDSPContext = type { ptr }
%struct.VVCLFDSPContext = type { [2 x ptr], [2 x ptr], [2 x ptr] }
%struct.VVCSAODSPContext = type { [9 x ptr], [9 x ptr], [2 x ptr] }
%struct.VVCALFDSPContext = type { [2 x ptr], ptr, ptr, ptr }
%struct.VideoDSPContext = type { ptr, ptr }
%struct.anon.1 = type { ptr, ptr, ptr, ptr, [2 x ptr], [2 x ptr], [2 x ptr], [2 x ptr], [2 x ptr], [3 x ptr], ptr, ptr, [2 x ptr], ptr, ptr, [2 x ptr], ptr, ptr, ptr, [2 x ptr], ptr, [3 x ptr], ptr, [2 x ptr], [2 x ptr], [2 x ptr], [2 x [3 x ptr]], [2 x ptr], [2 x ptr], [3 x ptr], [3 x ptr], [3 x [2 x ptr]], [3 x [2 x ptr]], ptr, ptr, ptr, [3 x ptr], %struct.anon.2 }
%struct.anon.2 = type { i32, i32, i32, i32, i32, i32, i32, i32, i32, i32, i32, i32 }
%struct.VVCPPS = type { ptr, [3 x i8], [6 x [3 x i8]], i16, i16, [1000 x i16], [1000 x i16], i16, i16, i16, i16, i32, i16, i16, i16, i16, ptr, ptr, ptr, ptr, ptr, i16, i16, i16, i16, i16, [1000 x i16], [1000 x i16], [1000 x i16], [1000 x i16] }
%struct.MvField = type { [2 x %struct.Mv], [2 x i8], i8, i8, i8, i8 }
%struct.CodingUnit = type { i32, i32, i32, i32, i32, i32, i32, i8, i8, i8, i8, i32, i32, i8, i8, i8, i8, i8, i32, i32, i32, i32, i32, i32, [3 x i32], [3 x i32], %struct.anon.3, [4 x i8], [3 x %struct.Palette], [4 x i8], %struct.PredictionUnit, ptr }
%struct.anon.3 = type { ptr, ptr }
%struct.Palette = type { i8, [63 x i16] }
%struct.PredictionUnit = type { i8, i8, i8, i8, i8, i8, [2 x %struct.MvField], i32, %struct.MotionInfo, i8, i8, [2 x [16 x i16]], [2 x [16 x i16]], [2 x i32], [4 x i8] }
%struct.MotionInfo = type { i32, [2 x i8], i8, i8, i32, [2 x [3 x %struct.Mv]], i32, i32 }

; Function Attrs: nounwind uwtable
define void @ff_vvc_set_intra_mvf(ptr noundef %0, i1 noundef zeroext %1, i32 noundef %2, i1 noundef zeroext %3) #0 {
  %5 = alloca ptr, align 8
  %6 = alloca i8, align 1
  %7 = alloca i32, align 4
  %8 = alloca i8, align 1
  %9 = alloca ptr, align 8
  %10 = alloca ptr, align 8
  %11 = alloca ptr, align 8
  %12 = alloca i32, align 4
  %13 = alloca i32, align 4
  %14 = alloca i32, align 4
  %15 = alloca i32, align 4
  %16 = alloca i32, align 4
  %17 = alloca i32, align 4
  %18 = alloca i32, align 4
  %19 = alloca ptr, align 8
  store ptr %0, ptr %5, align 8, !tbaa !14
  %20 = zext i1 %1 to i8
  store i8 %20, ptr %6, align 1, !tbaa !88
  store i32 %2, ptr %7, align 4, !tbaa !9
  %21 = zext i1 %3 to i8
  store i8 %21, ptr %8, align 1, !tbaa !88
  call void @llvm.lifetime.start.p0(i64 8, ptr %9) #9
  %22 = load ptr, ptr %5, align 8, !tbaa !14
  %23 = getelementptr inbounds nuw %struct.VVCLocalContext, ptr %22, i32 0, i32 24
  %24 = load ptr, ptr %23, align 8, !tbaa !39
  store ptr %24, ptr %9, align 8, !tbaa !78
  call void @llvm.lifetime.start.p0(i64 8, ptr %10) #9
  %25 = load ptr, ptr %5, align 8, !tbaa !14
  %26 = getelementptr inbounds nuw %struct.VVCLocalContext, ptr %25, i32 0, i32 18
  %27 = load ptr, ptr %26, align 8, !tbaa !90
  store ptr %27, ptr %10, align 8, !tbaa !91
  call void @llvm.lifetime.start.p0(i64 8, ptr %11) #9
  %28 = load i8, ptr %6, align 1, !tbaa !88, !range !92, !noundef !93
  %29 = trunc i8 %28 to i1
  br i1 %29, label %30, label %36

30:                                               ; preds = %4
  %31 = load ptr, ptr %9, align 8, !tbaa !78
  %32 = getelementptr inbounds nuw %struct.VVCFrameContext, ptr %31, i32 0, i32 8
  %33 = load ptr, ptr %32, align 8, !tbaa !94
  %34 = getelementptr inbounds nuw %struct.VVCFrame, ptr %33, i32 0, i32 3
  %35 = load ptr, ptr %34, align 8, !tbaa !95
  br label %41

36:                                               ; preds = %4
  %37 = load ptr, ptr %9, align 8, !tbaa !78
  %38 = getelementptr inbounds nuw %struct.VVCFrameContext, ptr %37, i32 0, i32 17
  %39 = getelementptr inbounds nuw %struct.anon.1, ptr %38, i32 0, i32 20
  %40 = load ptr, ptr %39, align 8, !tbaa !79
  br label %41

41:                                               ; preds = %36, %30
  %42 = phi ptr [ %35, %30 ], [ %40, %36 ]
  store ptr %42, ptr %11, align 8, !tbaa !77
  call void @llvm.lifetime.start.p0(i64 4, ptr %12) #9
  %43 = load ptr, ptr %9, align 8, !tbaa !78
  %44 = getelementptr inbounds nuw %struct.VVCFrameContext, ptr %43, i32 0, i32 4
  %45 = getelementptr inbounds nuw %struct.VVCFrameParamSets, ptr %44, i32 0, i32 1
  %46 = load ptr, ptr %45, align 8, !tbaa !80
  %47 = getelementptr inbounds nuw %struct.VVCPPS, ptr %46, i32 0, i32 12
  %48 = load i16, ptr %47, align 8, !tbaa !81
  %49 = zext i16 %48 to i32
  store i32 %49, ptr %12, align 4, !tbaa !9
  call void @llvm.lifetime.start.p0(i64 4, ptr %13) #9
  store i32 4, ptr %13, align 4, !tbaa !9
  call void @llvm.lifetime.start.p0(i64 4, ptr %14) #9
  store i32 0, ptr %14, align 4, !tbaa !9
  br label %50

50:                                               ; preds = %99, %41
  %51 = load i32, ptr %14, align 4, !tbaa !9
  %52 = load ptr, ptr %10, align 8, !tbaa !91
  %53 = getelementptr inbounds nuw %struct.CodingUnit, ptr %52, i32 0, i32 4
  %54 = load i32, ptr %53, align 8, !tbaa !101
  %55 = icmp slt i32 %51, %54
  br i1 %55, label %57, label %56

56:                                               ; preds = %50
  store i32 2, ptr %15, align 4
  call void @llvm.lifetime.end.p0(i64 4, ptr %14) #9
  br label %102

57:                                               ; preds = %50
  call void @llvm.lifetime.start.p0(i64 4, ptr %16) #9
  store i32 0, ptr %16, align 4, !tbaa !9
  br label %58

58:                                               ; preds = %95, %57
  %59 = load i32, ptr %16, align 4, !tbaa !9
  %60 = load ptr, ptr %10, align 8, !tbaa !91
  %61 = getelementptr inbounds nuw %struct.CodingUnit, ptr %60, i32 0, i32 3
  %62 = load i32, ptr %61, align 4, !tbaa !107
  %63 = icmp slt i32 %59, %62
  br i1 %63, label %65, label %64

64:                                               ; preds = %58
  store i32 5, ptr %15, align 4
  call void @llvm.lifetime.end.p0(i64 4, ptr %16) #9
  br label %98

65:                                               ; preds = %58
  call void @llvm.lifetime.start.p0(i64 4, ptr %17) #9
  %66 = load ptr, ptr %10, align 8, !tbaa !91
  %67 = getelementptr inbounds nuw %struct.CodingUnit, ptr %66, i32 0, i32 1
  %68 = load i32, ptr %67, align 4, !tbaa !108
  %69 = load i32, ptr %16, align 4, !tbaa !9
  %70 = add nsw i32 %68, %69
  store i32 %70, ptr %17, align 4, !tbaa !9
  call void @llvm.lifetime.start.p0(i64 4, ptr %18) #9
  %71 = load ptr, ptr %10, align 8, !tbaa !91
  %72 = getelementptr inbounds nuw %struct.CodingUnit, ptr %71, i32 0, i32 2
  %73 = load i32, ptr %72, align 8, !tbaa !109
  %74 = load i32, ptr %14, align 4, !tbaa !9
  %75 = add nsw i32 %73, %74
  store i32 %75, ptr %18, align 4, !tbaa !9
  call void @llvm.lifetime.start.p0(i64 8, ptr %19) #9
  %76 = load ptr, ptr %11, align 8, !tbaa !77
  %77 = load i32, ptr %18, align 4, !tbaa !9
  %78 = ashr i32 %77, 2
  %79 = load i32, ptr %12, align 4, !tbaa !9
  %80 = mul nsw i32 %78, %79
  %81 = load i32, ptr %17, align 4, !tbaa !9
  %82 = ashr i32 %81, 2
  %83 = add nsw i32 %80, %82
  %84 = sext i32 %83 to i64
  %85 = getelementptr inbounds %struct.MvField, ptr %76, i64 %84
  store ptr %85, ptr %19, align 8, !tbaa !77
  %86 = load i32, ptr %7, align 4, !tbaa !9
  %87 = trunc i32 %86 to i8
  %88 = load ptr, ptr %19, align 8, !tbaa !77
  %89 = getelementptr inbounds nuw %struct.MvField, ptr %88, i32 0, i32 4
  store i8 %87, ptr %89, align 4, !tbaa !110
  %90 = load i8, ptr %8, align 1, !tbaa !88, !range !92, !noundef !93
  %91 = trunc i8 %90 to i1
  %92 = zext i1 %91 to i8
  %93 = load ptr, ptr %19, align 8, !tbaa !77
  %94 = getelementptr inbounds nuw %struct.MvField, ptr %93, i32 0, i32 5
  store i8 %92, ptr %94, align 1, !tbaa !112
  call void @llvm.lifetime.end.p0(i64 8, ptr %19) #9
  call void @llvm.lifetime.end.p0(i64 4, ptr %18) #9
  call void @llvm.lifetime.end.p0(i64 4, ptr %17) #9
  br label %95

95:                                               ; preds = %65
  %96 = load i32, ptr %16, align 4, !tbaa !9
  %97 = add nsw i32 %96, 4
  store i32 %97, ptr %16, align 4, !tbaa !9
  br label %58, !llvm.loop !113

98:                                               ; preds = %64
  br label %99

99:                                               ; preds = %98
  %100 = load i32, ptr %14, align 4, !tbaa !9
  %101 = add nsw i32 %100, 4
  store i32 %101, ptr %14, align 4, !tbaa !9
  br label %50, !llvm.loop !114

102:                                              ; preds = %56
  call void @llvm.lifetime.end.p0(i64 4, ptr %13) #9
  call void @llvm.lifetime.end.p0(i64 4, ptr %12) #9
  call void @llvm.lifetime.end.p0(i64 8, ptr %11) #9
  call void @llvm.lifetime.end.p0(i64 8, ptr %10) #9
  call void @llvm.lifetime.end.p0(i64 8, ptr %9) #9
  ret void
}