; Function Attrs: nofree norecurse nosync nounwind memory(readwrite, inaccessiblemem: none) uwtable
define void @ff_vvc_set_intra_mvf(ptr noundef readonly captures(none) %0, i1 noundef zeroext %1, i32 noundef %2, i1 noundef zeroext %3) local_unnamed_addr #4 {
  %5 = zext i1 %3 to i8
  %6 = getelementptr inbounds nuw i8, ptr %0, i64 4580552
  %7 = load ptr, ptr %6, align 8, !tbaa !30
  %8 = getelementptr inbounds nuw i8, ptr %0, i64 4547736
  %9 = load ptr, ptr %8, align 8, !tbaa !80
  br i1 %1, label %10, label %14

10:                                               ; preds = %4
  %11 = getelementptr inbounds nuw i8, ptr %7, i64 18952
  %12 = load ptr, ptr %11, align 8, !tbaa !81
  %13 = getelementptr inbounds nuw i8, ptr %12, i64 24
  br label %16

14:                                               ; preds = %4
  %15 = getelementptr inbounds nuw i8, ptr %7, i64 21576
  br label %16

16:                                               ; preds = %14, %10
  %.in = phi ptr [ %13, %10 ], [ %15, %14 ]
  %17 = load ptr, ptr %.in, align 8, !tbaa !82
  %18 = getelementptr inbounds nuw i8, ptr %7, i64 1936
  %19 = load ptr, ptr %18, align 8, !tbaa !72
  %20 = getelementptr inbounds nuw i8, ptr %19, i64 4048
  %21 = load i16, ptr %20, align 8, !tbaa !73
  %22 = zext i16 %21 to i32
  %23 = getelementptr inbounds nuw i8, ptr %9, i64 16
  %24 = load i32, ptr %23, align 8, !tbaa !83
  %25 = icmp sgt i32 %24, 0
  br i1 %25, label %.preheader.lr.ph, label %._crit_edge26

.preheader.lr.ph:                                 ; preds = %16
  %26 = getelementptr inbounds nuw i8, ptr %9, i64 12
  %27 = load i32, ptr %26, align 4, !tbaa !89
  %28 = icmp sgt i32 %27, 0
  %29 = trunc i32 %2 to i8
  br i1 %28, label %.preheader.lr.ph.split.us, label %._crit_edge26

.preheader.lr.ph.split.us:                        ; preds = %.preheader.lr.ph
  %30 = getelementptr inbounds nuw i8, ptr %9, i64 8
  %31 = getelementptr inbounds nuw i8, ptr %9, i64 4
  %32 = load i32, ptr %31, align 4, !tbaa !90
  %33 = load i32, ptr %30, align 8, !tbaa !91
  br label %.preheader.us

.preheader.us:                                    ; preds = %._crit_edge.us, %.preheader.lr.ph.split.us
  %.025.us = phi i32 [ 0, %.preheader.lr.ph.split.us ], [ %47, %._crit_edge.us ]
  %34 = add nsw i32 %33, %.025.us
  %35 = ashr i32 %34, 2
  %36 = mul nsw i32 %35, %22
  br label %37

37:                                               ; preds = %.preheader.us, %37
  %.02324.us = phi i32 [ 0, %.preheader.us ], [ %45, %37 ]
  %38 = add nsw i32 %32, %.02324.us
  %39 = ashr i32 %38, 2
  %40 = add nsw i32 %36, %39
  %41 = sext i32 %40 to i64
  %42 = getelementptr inbounds %struct.MvField, ptr %17, i64 %41
  %43 = getelementptr inbounds nuw i8, ptr %42, i64 20
  store i8 %29, ptr %43, align 4, !tbaa !92
  %44 = getelementptr inbounds nuw i8, ptr %42, i64 21
  store i8 %5, ptr %44, align 1, !tbaa !94
  %45 = add nuw nsw i32 %.02324.us, 4
  %46 = icmp slt i32 %45, %27
  br i1 %46, label %37, label %._crit_edge.us, !llvm.loop !95

._crit_edge.us:                                   ; preds = %37
  %47 = add nuw nsw i32 %.025.us, 4
  %48 = icmp slt i32 %47, %24
  br i1 %48, label %.preheader.us, label %._crit_edge26, !llvm.loop !96

._crit_edge26:                                    ; preds = %._crit_edge.us, %.preheader.lr.ph, %16
  ret void
}